; Function Attrs: nounwind uwtable
define noalias noundef ptr @Gia_ManSumEnum_rec(i32 noundef %0) local_unnamed_addr #0 {
  %2 = icmp eq i32 %0, 1
  %3 = tail call noalias dereferenceable_or_null(16) ptr @malloc(i64 noundef 16) #23
  %4 = getelementptr inbounds nuw i8, ptr %3, i64 4
  br i1 %2, label %Vec_StrPush.exit, label %8

Vec_StrPush.exit:                                 ; preds = %1
  store i32 16, ptr %3, align 8, !tbaa !52
  %5 = tail call noalias dereferenceable_or_null(16) ptr @malloc(i64 noundef 16) #23
  %6 = getelementptr inbounds nuw i8, ptr %3, i64 8
  store ptr %5, ptr %6, align 8, !tbaa !5
  store i8 49, ptr %5, align 1, !tbaa !12
  store i32 2, ptr %4, align 4, !tbaa !51
  %7 = getelementptr inbounds nuw i8, ptr %5, i64 1
  store i8 0, ptr %7, align 1, !tbaa !12
  br label %.loopexit

8:                                                ; preds = %1
  store i32 0, ptr %4, align 4, !tbaa !51
  store i32 16, ptr %3, align 8, !tbaa !52
  %9 = tail call noalias dereferenceable_or_null(16) ptr @malloc(i64 noundef 16) #23
  %10 = getelementptr inbounds nuw i8, ptr %3, i64 8
  store ptr %9, ptr %10, align 8, !tbaa !5
  %11 = icmp sgt i32 %0, 1
  br i1 %11, label %.lr.ph, label %.loopexit

.lr.ph:                                           ; preds = %8
  %12 = icmp samesign ult i32 %0, 10
  %.v = select i1 %12, i32 48, i32 55
  %13 = add nuw nsw i32 %.v, %0
  br label %14

14:                                               ; preds = %.lr.ph, %Vec_StrFree.exit49
  %.03453 = phi i32 [ 1, %.lr.ph ], [ %45, %Vec_StrFree.exit49 ]
  %15 = tail call ptr @Gia_ManSumEnum_rec(i32 noundef %.03453)
  %16 = sub nsw i32 %0, %.03453
  %17 = tail call ptr @Gia_ManSumEnum_rec(i32 noundef %16)
  %18 = getelementptr i8, ptr %15, i64 4
  %.val36 = load i32, ptr %18, align 4, !tbaa !51
  %19 = icmp sgt i32 %.val36, 0
  br i1 %19, label %.preheader.lr.ph, label %._crit_edge52

.preheader.lr.ph:                                 ; preds = %14
  %20 = getelementptr i8, ptr %17, i64 4
  %.val = load i32, ptr %20, align 4, !tbaa !51
  %21 = icmp sgt i32 %.val, 0
  br i1 %21, label %.preheader.lr.ph.split.us, label %._crit_edge52

.preheader.lr.ph.split.us:                        ; preds = %.preheader.lr.ph
  %22 = getelementptr i8, ptr %15, i64 8
  %23 = getelementptr i8, ptr %17, i64 8
  %.val37.us = load ptr, ptr %22, align 8, !tbaa !5
  %.val38.us = load ptr, ptr %23, align 8, !tbaa !5
  br label %.preheader.us

.preheader.us:                                    ; preds = %._crit_edge.us, %.preheader.lr.ph.split.us
  %.03251.us = phi i32 [ 0, %.preheader.lr.ph.split.us ], [ %37, %._crit_edge.us ]
  %24 = sext i32 %.03251.us to i64
  %25 = getelementptr inbounds i8, ptr %.val37.us, i64 %24
  br label %26

26:                                               ; preds = %.preheader.us, %26
  %.050.us = phi i32 [ 0, %.preheader.us ], [ %32, %26 ]
  %27 = sext i32 %.050.us to i64
  %28 = getelementptr inbounds i8, ptr %.val38.us, i64 %27
  tail call void (ptr, ptr, ...) @Vec_StrPrintF(ptr noundef nonnull %3, ptr noundef nonnull @.str.59, ptr noundef %25, ptr noundef %28, i32 noundef 0)
  %29 = tail call i64 @strlen(ptr noundef nonnull dereferenceable(1) %28) #25
  %30 = trunc i64 %29 to i32
  %31 = add nsw i32 %.050.us, 1
  %32 = add i32 %31, %30
  %33 = icmp slt i32 %32, %.val
  br i1 %33, label %26, label %._crit_edge.us, !llvm.loop !111

._crit_edge.us:                                   ; preds = %26
  %34 = tail call i64 @strlen(ptr noundef nonnull dereferenceable(1) %25) #25
  %35 = trunc i64 %34 to i32
  %36 = add i32 %.03251.us, 1
  %37 = add i32 %36, %35
  %38 = icmp slt i32 %37, %.val36
  br i1 %38, label %.preheader.us, label %._crit_edge52, !llvm.loop !112

._crit_edge52:                                    ; preds = %._crit_edge.us, %.preheader.lr.ph, %14
  tail call void (ptr, ptr, ...) @Vec_StrPrintF(ptr noundef nonnull %3, ptr noundef nonnull @.str.60, i32 noundef %13, i32 noundef 0)
  %39 = getelementptr inbounds nuw i8, ptr %15, i64 8
  %40 = load ptr, ptr %39, align 8, !tbaa !5
  %.not.i = icmp eq ptr %40, null
  br i1 %.not.i, label %Vec_StrFree.exit, label %41

41:                                               ; preds = %._crit_edge52
  tail call void @free(ptr noundef nonnull %40) #21
  br label %Vec_StrFree.exit

Vec_StrFree.exit:                                 ; preds = %._crit_edge52, %41
  tail call void @free(ptr noundef nonnull %15) #21
  %42 = getelementptr inbounds nuw i8, ptr %17, i64 8
  %43 = load ptr, ptr %42, align 8, !tbaa !5
  %.not.i48 = icmp eq ptr %43, null
  br i1 %.not.i48, label %Vec_StrFree.exit49, label %44

44:                                               ; preds = %Vec_StrFree.exit
  tail call void @free(ptr noundef nonnull %43) #21
  br label %Vec_StrFree.exit49

Vec_StrFree.exit49:                               ; preds = %Vec_StrFree.exit, %44
  tail call void @free(ptr noundef nonnull %17) #21
  %45 = add nuw nsw i32 %.03453, 1
  %exitcond.not = icmp eq i32 %45, %0
  br i1 %exitcond.not, label %.loopexit, label %14, !llvm.loop !113

.loopexit:                                        ; preds = %Vec_StrFree.exit49, %8, %Vec_StrPush.exit
  ret ptr %3
}